target datalayout = "e-m:e-p270:32:32-p271:32:32-p272:64:64-i64:64-i128:128-f80:128-n8:16:32:64-S128"
target triple = "x86_64-pc-linux-gnu"

@.str.14 = private unnamed_addr constant [35 x i8] c"../openssl/test/prov_config_test.c\00", align 1
@recurseconfigfile = internal global ptr null, align 8
@.str.22 = private unnamed_addr constant [4 x i8] c"ctx\00", align 1
@.str.23 = private unnamed_addr constant [49 x i8] c"OSSL_LIB_CTX_load_config(ctx, recurseconfigfile)\00", align 1

; Function Attrs: inlinehint nounwind uwtable
define internal i32 @ERR_GET_REASON(i64 noundef %0) #3 {
  %2 = alloca i32, align 4
  %3 = alloca i64, align 8
  store i64 %0, ptr %3, align 8, !tbaa !13
  %4 = load i64, ptr %3, align 8, !tbaa !13
  %5 = and i64 %4, 2147483648
  %6 = icmp ne i64 %5, 0
  br i1 %6, label %7, label %11

7:                                                ; preds = %1
  %8 = load i64, ptr %3, align 8, !tbaa !13
  %9 = and i64 %8, 2147483647
  %10 = trunc i64 %9 to i32
  store i32 %10, ptr %2, align 4
  br label %15

11:                                               ; preds = %1
  %12 = load i64, ptr %3, align 8, !tbaa !13
  %13 = and i64 %12, 8388607
  %14 = trunc i64 %13 to i32
  store i32 %14, ptr %2, align 4
  br label %15

15:                                               ; preds = %11, %7
  %16 = load i32, ptr %2, align 4
  ret i32 %16
}

; Function Attrs: nounwind uwtable
define internal i32 @test_recursive_config() #0 {
  %1 = alloca ptr, align 8
  %2 = alloca i32, align 4
  %3 = alloca i64, align 8
  call void @llvm.lifetime.start.p0(i64 8, ptr %1) #6
  %4 = call ptr @OSSL_LIB_CTX_new()
  store ptr %4, ptr %1, align 8, !tbaa !9
  call void @llvm.lifetime.start.p0(i64 4, ptr %2) #6
  store i32 0, ptr %2, align 4, !tbaa !11
  call void @llvm.lifetime.start.p0(i64 8, ptr %3) #6
  %5 = load ptr, ptr %1, align 8, !tbaa !9
  %6 = call i32 @test_ptr(ptr noundef @.str.14, i32 noundef 55, ptr noundef @.str.22, ptr noundef %5)
  %7 = icmp ne i32 %6, 0
  br i1 %7, label %9, label %8

8:                                                ; preds = %0
  br label %25

9:                                                ; preds = %0
  %10 = load ptr, ptr %1, align 8, !tbaa !9
  %11 = load ptr, ptr @recurseconfigfile, align 8, !tbaa !4
  %12 = call i32 @OSSL_LIB_CTX_load_config(ptr noundef %10, ptr noundef %11)
  %13 = icmp ne i32 %12, 0
  %14 = zext i1 %13 to i32
  %15 = call i32 @test_false(ptr noundef @.str.14, i32 noundef 58, ptr noundef @.str.23, i32 noundef %14)
  %16 = icmp ne i32 %15, 0
  br i1 %16, label %18, label %17

17:                                               ; preds = %9
  br label %25

18:                                               ; preds = %9
  %19 = call i64 @ERR_peek_error()
  store i64 %19, ptr %3, align 8, !tbaa !13
  %20 = load i64, ptr %3, align 8, !tbaa !13
  %21 = call i32 @ERR_GET_REASON(i64 noundef %20)
  %22 = icmp eq i32 %21, 126
  br i1 %22, label %23, label %24

23:                                               ; preds = %18
  store i32 1, ptr %2, align 4, !tbaa !11
  br label %24

24:                                               ; preds = %23, %18
  br label %25

25:                                               ; preds = %24, %17, %8
  %26 = load ptr, ptr %1, align 8, !tbaa !9
  call void @OSSL_LIB_CTX_free(ptr noundef %26)
  %27 = load i32, ptr %2, align 4, !tbaa !11
  call void @llvm.lifetime.end.p0(i64 8, ptr %3) #6
  call void @llvm.lifetime.end.p0(i64 4, ptr %2) #6
  call void @llvm.lifetime.end.p0(i64 8, ptr %1) #6
  ret i32 %27
}