; Function Attrs: nounwind uwtable
define internal range(i32 0, 2) i32 @test_recursive_config() #1 {
  %1 = tail call ptr @OSSL_LIB_CTX_new() #9
  %2 = tail call i32 @test_ptr(ptr noundef nonnull @.str.14, i32 noundef 55, ptr noundef nonnull @.str.22, ptr noundef %1) #9
  %.not = icmp eq i32 %2, 0
  br i1 %.not, label %14, label %3

3:                                                ; preds = %0
  %4 = load ptr, ptr @recurseconfigfile, align 8, !tbaa !4
  %5 = tail call i32 @OSSL_LIB_CTX_load_config(ptr noundef %1, ptr noundef %4) #9
  %6 = icmp ne i32 %5, 0
  %7 = zext i1 %6 to i32
  %8 = tail call i32 @test_false(ptr noundef nonnull @.str.14, i32 noundef 58, ptr noundef nonnull @.str.23, i32 noundef %7) #9
  %.not4 = icmp eq i32 %8, 0
  br i1 %.not4, label %14, label %9

9:                                                ; preds = %3
  %10 = tail call i64 @ERR_peek_error() #9
  %11 = and i64 %10, 2147483648
  %.not.i = icmp eq i64 %11, 0
  %12 = trunc i64 %10 to i32
  %.0.v.i = select i1 %.not.i, i32 8388607, i32 2147483647
  %.0.i = and i32 %.0.v.i, %12
  %13 = icmp eq i32 %.0.i, 126
  %spec.select = zext i1 %13 to i32
  br label %14

14:                                               ; preds = %9, %3, %0
  %.0 = phi i32 [ 0, %3 ], [ 0, %0 ], [ %spec.select, %9 ]
  tail call void @OSSL_LIB_CTX_free(ptr noundef %1) #9
  ret i32 %.0
}